(dp1
S'files'
p2
(dp3
S'_home_sebastien_devel_janitoo_janitoo_src_janitoo_mqtt'
p4
(dp5
S'index'
p6
(dp7
S'html_filename'
p8
S'_home_sebastien_devel_janitoo_janitoo_src_janitoo_mqtt.html'
p9
sS'name'
p10
S'/home/sebastien/devel/janitoo/janitoo/src/janitoo/mqtt'
p11
sS'nums'
p12
ccopy_reg
_reconstructor
p13
(ccoverage.results
Numbers
p14
c__builtin__
object
p15
NtRp16
(dp17
S'n_files'
p18
I1
sS'n_branches'
p19
I0
sS'n_statements'
p20
I134
sS'n_excluded'
p21
I0
sS'n_partial_branches'
p22
I0
sS'n_missing'
p23
I38
sS'n_missing_branches'
p24
I0
sbssS'hash'
p25
S'UM?\xc3i\x16=\x97\x8b\xda\xf6B6\x93\xa3q'
p26
ssS'_home_sebastien_devel_janitoo_janitoo_src_janitoo_value_factory'
p27
(dp28
g6
(dp29
g8
S'_home_sebastien_devel_janitoo_janitoo_src_janitoo_value_factory.html'
p30
sg10
S'/home/sebastien/devel/janitoo/janitoo/src/janitoo/value_factory'
p31
sg12
g13
(g14
g15
NtRp32
(dp33
g18
I1
sg19
I0
sg20
I237
sg21
I0
sg22
I0
sg23
I207
sg24
I0
sbssg25
S',\xb5l\x19\x83\x16\xe2\x91\x05\xaf\xbcY\x81\xdbj\x0f'
p34
ssS'janitoo_raspberry_i2c_bus_i2c'
p35
(dp36
S'index'
p37
(dp38
S'html_filename'
p39
S'janitoo_raspberry_i2c_bus_i2c.html'
p40
sS'name'
p41
S'janitoo_raspberry_i2c.bus_i2c'
p42
sS'nums'
p43
g13
(g14
g15
NtRp44
(dp45
g18
I1
sg19
I0
sg20
I44
sg21
I0
sg22
I0
sg23
I4
sg24
I0
sbssS'hash'
p46
S'q6\xb5\x8b=\x14\x9bR$\xeaH?aX\xcc\xd2'
p47
ssS'src_janitoo_raspberry_i2c_bus_i2c'
p48
(dp49
g6
(dp50
g8
S'src_janitoo_raspberry_i2c_bus_i2c.html'
p51
sg10
S'src/janitoo_raspberry_i2c/bus_i2c'
p52
sg12
g13
(g14
g15
NtRp53
(dp54
g18
I1
sg19
I0
sg20
I44
sg21
I0
sg22
I0
sg23
I16
sg24
I0
sbssg25
S"\x0e\xdf_7\xf1\r\xe8'\x18\xa8i\xa6<\xf0\x90\xca"
p55
ssS'_home_sebastien_devel_janitoo_janitoo_src_janitoo__compat'
p56
(dp57
g6
(dp58
g8
S'_home_sebastien_devel_janitoo_janitoo_src_janitoo__compat.html'
p59
sg10
S'/home/sebastien/devel/janitoo/janitoo/src/janitoo/_compat'
p60
sg12
g13
(g14
g15
NtRp61
(dp62
g18
I1
sg19
I0
sg20
I46
sg21
I0
sg22
I0
sg23
I46
sg24
I0
sbssg25
S'\xf9\x15,\xcb\xd5\xbd\x1d+\xd7\xd5\xd9\xf4\xb2%\x16i'
p63
ssS'_home_sebastien_devel_janitoo_janitoo_src_janitoo_server_updater'
p64
(dp65
g6
(dp66
g8
S'_home_sebastien_devel_janitoo_janitoo_src_janitoo_server_updater.html'
p67
sg10
S'/home/sebastien/devel/janitoo/janitoo/src/janitoo/server_updater'
p68
sg12
g13
(g14
g15
NtRp69
(dp70
g18
I1
sg19
I0
sg20
I264
sg21
I0
sg22
I0
sg23
I264
sg24
I0
sbssg25
S'\x01\xab\xe7KQB\xad\xbeA\x16\xd1]\xf7\x8e\xc2\x07'
p71
ssS'_home_sebastien_devel_janitoo_janitoo_src_janitoo_node'
p72
(dp73
g6
(dp74
g8
S'_home_sebastien_devel_janitoo_janitoo_src_janitoo_node.html'
p75
sg10
S'/home/sebastien/devel/janitoo/janitoo/src/janitoo/node'
p76
sg12
g13
(g14
g15
NtRp77
(dp78
g18
I1
sg19
I0
sg20
I1132
sg21
I0
sg22
I0
sg23
I656
sg24
I0
sbssg25
S'\xf2\xd2I\xdc\xde\xf2\xe3^d\xab\x84\x12\x9a\xe70@'
p79
ssS'src_janitoo_raspberry_i2c_thread_i2c'
p80
(dp81
g6
(dp82
g8
S'src_janitoo_raspberry_i2c_thread_i2c.html'
p83
sg10
S'src/janitoo_raspberry_i2c/thread_i2c'
p84
sg12
g13
(g14
g15
NtRp85
(dp86
g18
I1
sg19
I0
sg20
I30
sg21
I0
sg22
I0
sg23
I6
sg24
I0
sbssg25
S'KXA,\x9bg\xe5S\x021>\xab\x9d\xc2\xaav'
p87
ssS'src_janitoo_raspberry_i2c___init__'
p88
(dp89
g6
(dp90
g8
S'src_janitoo_raspberry_i2c___init__.html'
p91
sg10
S'src/janitoo_raspberry_i2c/__init__'
p92
sg12
g13
(g14
g15
NtRp93
(dp94
g18
I1
sg19
I0
sg20
I4
sg21
I5
sg22
I0
sg23
I0
sg24
I0
sbssg25
S'\xb7\xeb\xa7\x9c>\xb6$\xa8"\x12\xe3\xefN\xc1\xe9\xcd'
p95
ssS'_home_sebastien_devel_janitoo_janitoo_src_janitoo_server'
p96
(dp97
g6
(dp98
g8
S'_home_sebastien_devel_janitoo_janitoo_src_janitoo_server.html'
p99
sg10
S'/home/sebastien/devel/janitoo/janitoo/src/janitoo/server'
p100
sg12
g13
(g14
g15
NtRp101
(dp102
g18
I1
sg19
I0
sg20
I323
sg21
I0
sg22
I0
sg23
I180
sg24
I0
sbssg25
S'>0\x04\xf4\x08\xa93<\xbdZGg\x87\xe93\x05'
p103
ssS'_home_sebastien_devel_janitoo_janitoo_src_janitoo_tests'
p104
(dp105
g6
(dp106
g8
S'_home_sebastien_devel_janitoo_janitoo_src_janitoo_tests.html'
p107
sg10
S'/home/sebastien/devel/janitoo/janitoo/src/janitoo/tests'
p108
sg12
g13
(g14
g15
NtRp109
(dp110
g18
I1
sg19
I0
sg20
I62
sg21
I0
sg22
I0
sg23
I20
sg24
I0
sbssg25
S'C\x9e\xa4`\xcbI\xf6_\xa2\x0b\x05\x0f\xea_\x0b\x8f'
p111
ssS'_home_sebastien_devel_janitoo_janitoo_src_janitoo_bus'
p112
(dp113
g6
(dp114
g8
S'_home_sebastien_devel_janitoo_janitoo_src_janitoo_bus.html'
p115
sg10
S'/home/sebastien/devel/janitoo/janitoo/src/janitoo/bus'
p116
sg12
g13
(g14
g15
NtRp117
(dp118
g18
I1
sg19
I0
sg20
I172
sg21
I0
sg22
I0
sg23
I123
sg24
I0
sbssg25
S'S\x00\n%`0i\xfdg\xde:\xdc\xb7\x03\x8a\x13'
p119
ssS'janitoo_raspberry_i2c'
p120
(dp121
g37
(dp122
g39
S'janitoo_raspberry_i2c.html'
p123
sg41
g120
sg43
g13
(g14
g15
NtRp124
(dp125
g18
I1
sg19
I0
sg20
I4
sg21
I5
sg22
I0
sg23
I0
sg24
I0
sbssg46
S'\xb7\xeb\xa7\x9c>\xb6$\xa8"\x12\xe3\xefN\xc1\xe9\xcd'
p126
ssS'_home_sebastien_devel_janitoo_janitoo_src_janitoo_thread'
p127
(dp128
g6
(dp129
g8
S'_home_sebastien_devel_janitoo_janitoo_src_janitoo_thread.html'
p130
sg10
S'/home/sebastien/devel/janitoo/janitoo/src/janitoo/thread'
p131
sg12
g13
(g14
g15
NtRp132
(dp133
g18
I1
sg19
I0
sg20
I143
sg21
I0
sg22
I0
sg23
I67
sg24
I0
sbssg25
S'\xb7\x89gd\x1c\xae\xcbF\x14\xc6:\xb94{V\n'
p134
ssS'_home_sebastien_devel_janitoo_janitoo_src_janitoo_options'
p135
(dp136
g6
(dp137
g8
S'_home_sebastien_devel_janitoo_janitoo_src_janitoo_options.html'
p138
sg10
S'/home/sebastien/devel/janitoo/janitoo/src/janitoo/options'
p139
sg12
g13
(g14
g15
NtRp140
(dp141
g18
I1
sg19
I0
sg20
I156
sg21
I0
sg22
I0
sg23
I92
sg24
I0
sbssg25
S'Mb3\xb36\xfd\x1e\x0c\xec@\x15\xdf\xa0|[\xf4'
p142
ssS'_home_sebastien_devel_janitoo_janitoo_src_janitoo_utils'
p143
(dp144
g6
(dp145
g8
S'_home_sebastien_devel_janitoo_janitoo_src_janitoo_utils.html'
p146
sg10
S'/home/sebastien/devel/janitoo/janitoo/src/janitoo/utils'
p147
sg12
g13
(g14
g15
NtRp148
(dp149
g18
I1
sg19
I0
sg20
I70
sg21
I0
sg22
I0
sg23
I20
sg24
I0
sbssg25
S'\x91\xc6>\x11\x86\xbaQ\xdc\x04\xdc\x08tydu\x0b'
p150
ssS'_home_sebastien_devel_janitoo_janitoo_src_janitoo_classes'
p151
(dp152
g6
(dp153
g8
S'_home_sebastien_devel_janitoo_janitoo_src_janitoo_classes.html'
p154
sg10
S'/home/sebastien/devel/janitoo/janitoo/src/janitoo/classes'
p155
sg12
g13
(g14
g15
NtRp156
(dp157
g18
I1
sg19
I0
sg20
I9
sg21
I0
sg22
I0
sg23
I0
sg24
I0
sbssg25
S'\xe8 \x88yMCm\x9d\xa7|O\x07\xf9\x86\xaff'
p158
ssS'_home_sebastien_devel_janitoo_janitoo_src_janitoo___init__'
p159
(dp160
g6
(dp161
g8
S'_home_sebastien_devel_janitoo_janitoo_src_janitoo___init__.html'
p162
sg10
S'/home/sebastien/devel/janitoo/janitoo/src/janitoo/__init__'
p163
sg12
g13
(g14
g15
NtRp164
(dp165
g18
I1
sg19
I0
sg20
I4
sg21
I5
sg22
I0
sg23
I0
sg24
I0
sbssg25
S'\xbet\xf8\x99\xbe\xda\x9e\xc9&\xaa\xae\xff\x03\xea\xdc.'
p166
ssS'_home_sebastien_devel_janitoo_janitoo_src_janitoo_value'
p167
(dp168
g6
(dp169
g8
S'_home_sebastien_devel_janitoo_janitoo_src_janitoo_value.html'
p170
sg10
S'/home/sebastien/devel/janitoo/janitoo/src/janitoo/value'
p171
sg12
g13
(g14
g15
NtRp172
(dp173
g18
I1
sg19
I0
sg20
I104
sg21
I0
sg22
I0
sg23
I44
sg24
I0
sbssg25
S'\x9d\x8atc\xeddM>\x9e;>\xc1\xd2Z<\xdb'
p174
ssS'janitoo_raspberry_i2c_thread_i2c'
p175
(dp176
g37
(dp177
S'html_filename'
p178
S'janitoo_raspberry_i2c_thread_i2c.html'
p179
sS'name'
p180
S'janitoo_raspberry_i2c.thread_i2c'
p181
sS'nums'
p182
g13
(g14
g15
NtRp183
(dp184
g18
I1
sg19
I0
sg20
I30
sg21
I0
sg22
I0
sg23
I0
sg24
I0
sbssg46
S'1\xd2.\xb4\xe00N[\xf2wN\xd9\x1b(m\x9b'
p185
ssS'_home_sebastien_devel_janitoo_janitoo_src_janitoo_runner'
p186
(dp187
g6
(dp188
g8
S'_home_sebastien_devel_janitoo_janitoo_src_janitoo_runner.html'
p189
sg10
S'/home/sebastien/devel/janitoo/janitoo/src/janitoo/runner'
p190
sg12
g13
(g14
g15
NtRp191
(dp192
g18
I1
sg19
I0
sg20
I221
sg21
I0
sg22
I0
sg23
I140
sg24
I0
sbssg25
S'm\xbek\xc18\rI"v\xec \xf6\x98\x82\x90\xf7'
p193
ssS'_home_sebastien_devel_janitoo_janitoo_src_janitoo_component'
p194
(dp195
g6
(dp196
g8
S'_home_sebastien_devel_janitoo_janitoo_src_janitoo_component.html'
p197
sg10
S'/home/sebastien/devel/janitoo/janitoo/src/janitoo/component'
p198
sg12
g13
(g14
g15
NtRp199
(dp200
g18
I1
sg19
I0
sg20
I65
sg21
I0
sg22
I0
sg23
I45
sg24
I0
sbssg25
S'\x1b.\xc8\xac\xc7\x88\xad\x07\x01\xaef\xe7l\xe0\xdd\x9e'
p201
ssS'_home_sebastien_devel_janitoo_janitoo_src_janitoo_dhcp'
p202
(dp203
g6
(dp204
g8
S'_home_sebastien_devel_janitoo_janitoo_src_janitoo_dhcp.html'
p205
sg10
S'/home/sebastien/devel/janitoo/janitoo/src/janitoo/dhcp'
p206
sg12
g13
(g14
g15
NtRp207
(dp208
g18
I1
sg19
I0
sg20
I1442
sg21
I0
sg22
I0
sg23
I1267
sg24
I0
sbssg25
S'\xa1\xbfa3r\x05\x14m\xfd\x1b\x8c\x9f\x91\x01\xf3U'
p209
sssS'version'
p210
S'3.7.1'
p211
sS'settings'
p212
S'c\xf2\xcf\t\xf1&+\xf8\xe2\xf9\x85\xb1\x97Od\x90'
p213
sS'format'
p214
I1
s.